target datalayout = "e-m:e-p270:32:32-p271:32:32-p272:64:64-i64:64-i128:128-f80:128-n8:16:32:64-S128"
target triple = "x86_64-pc-linux-gnu"

%struct.hs_platform_info = type { i32, i64, i64, i64 }

; Function Attrs: mustprogress uwtable
define dso_local i32 @hs_populate_platform(ptr noundef %0) #3 {
  %2 = alloca i32, align 4
  %3 = alloca ptr, align 8
  store ptr %0, ptr %3, align 8
  %4 = load ptr, ptr %3, align 8
  %5 = icmp ne ptr %4, null
  br i1 %5, label %7, label %6

6:                                                ; preds = %1
  store i32 -1, ptr %2, align 4
  br label %15

7:                                                ; preds = %1
  %8 = load ptr, ptr %3, align 8
  call void @llvm.memset.p0.i64(ptr align 8 %8, i8 0, i64 32, i1 false)
  %9 = call i64 @cpuid_flags()
  %10 = load ptr, ptr %3, align 8
  %11 = getelementptr inbounds nuw %struct.hs_platform_info, ptr %10, i32 0, i32 1
  store i64 %9, ptr %11, align 8
  %12 = call i32 @cpuid_tune()
  %13 = load ptr, ptr %3, align 8
  %14 = getelementptr inbounds nuw %struct.hs_platform_info, ptr %13, i32 0, i32 0
  store i32 %12, ptr %14, align 8
  store i32 0, ptr %2, align 4
  br label %15

15:                                               ; preds = %7, %6
  %16 = load i32, ptr %2, align 4
  ret i32 %16
}