; Function Attrs: mustprogress uwtable
define dso_local range(i32 -1, 1) i32 @hs_populate_platform(ptr noundef writeonly %0) local_unnamed_addr #0 {
  %.not = icmp eq ptr %0, null
  br i1 %.not, label %6, label %2

2:                                                ; preds = %1
  tail call void @llvm.memset.p0.i64(ptr noundef nonnull align 8 dereferenceable(32) %0, i8 0, i64 32, i1 false)
  %3 = tail call i64 @cpuid_flags()
  %4 = getelementptr inbounds nuw i8, ptr %0, i64 8
  store i64 %3, ptr %4, align 8
  %5 = tail call i32 @cpuid_tune()
  store i32 %5, ptr %0, align 8
  br label %6

6:                                                ; preds = %1, %2
  %.0 = phi i32 [ 0, %2 ], [ -1, %1 ]
  ret i32 %.0
}